target datalayout = "e-m:e-p270:32:32-p271:32:32-p272:64:64-i64:64-i128:128-f80:128-n8:16:32:64-S128"
target triple = "x86_64-pc-linux-gnu"

%struct.SwsInternal = type { %struct.SwsContext, ptr, ptr, ptr, ptr, i32, [2 x ptr], i32, i32, ptr, i32, i32, i32, i32, i32, i32, i32, i32, i32, i32, i32, i32, i32, i32, i32, i32, i32, i32, ptr, ptr, %struct.RangeList, [3 x ptr], [2 x [4 x i32]], [2 x [4 x ptr]], i32, double, i32, ptr, ptr, i32, [2 x i32], i32, ptr, ptr, [256 x i32], [256 x i32], [256 x float], i32, i32, ptr, i32, ptr, ptr, ptr, ptr, ptr, ptr, ptr, ptr, i32, i32, i32, i32, i32, i32, ptr, ptr, i32, i32, i32, ptr, [8 x i8], [1280 x i32], [1280 x ptr], [1280 x ptr], [1280 x ptr], [176 x i32], [4 x ptr], i32, i32, i32, [4 x i32], [4 x i32], i32, i32, i32, i32, i32, i32, i32, i32, i32, i32, i64, i64, i64, i64, i64, i64, i64, i64, i64, i64, i64, [1024 x i32], [1024 x i32], i32, i64, i64, i64, i64, i64, [1024 x i32], i64, i64, [8 x i16], [8 x i32], ptr, ptr, i32, ptr, ptr, ptr, ptr, [3 x [4 x i16]], [3 x [4 x i16]], ptr, ptr, ptr, ptr, ptr, ptr, ptr, ptr, ptr, ptr, ptr, ptr, ptr, ptr, ptr, ptr, ptr, ptr, ptr, ptr, i32, i32, i64, i64, i32, ptr, i32, ptr, i32, i32, i32, i32, i32, ptr }
%struct.SwsContext = type { ptr, ptr, i32, [2 x double], i32, i32, i32, i32, i32, i32, i32, i32, i32, i32, i32, i32, i32, i32, i32, i32, i32 }
%struct.RangeList = type { ptr, i32, i32 }

@.str.1 = private unnamed_addr constant [30 x i8] c"Assertion %s failed at %s:%d\0A\00", align 1
@.str.3 = private unnamed_addr constant [30 x i8] c"libswscale/swscale_unscaled.c\00", align 1
@.str.13 = private unnamed_addr constant [14 x i8] c"srcSliceH > 1\00", align 1

; Function Attrs: nounwind uwtable
define internal i32 @bayer_to_yv12_wrapper(ptr noundef %0, ptr noundef %1, ptr noundef %2, i32 noundef %3, i32 noundef %4, ptr noundef %5, ptr noundef %6) #0 {
  %8 = alloca i32, align 4
  %9 = alloca ptr, align 8
  %10 = alloca ptr, align 8
  %11 = alloca ptr, align 8
  %12 = alloca i32, align 4
  %13 = alloca i32, align 4
  %14 = alloca ptr, align 8
  %15 = alloca ptr, align 8
  %16 = alloca ptr, align 8
  %17 = alloca ptr, align 8
  %18 = alloca ptr, align 8
  %19 = alloca ptr, align 8
  %20 = alloca i32, align 4
  %21 = alloca ptr, align 8
  %22 = alloca ptr, align 8
  %23 = alloca i32, align 4
  store ptr %0, ptr %9, align 8, !tbaa !13
  store ptr %1, ptr %10, align 8, !tbaa !52
  store ptr %2, ptr %11, align 8, !tbaa !54
  store i32 %3, ptr %12, align 4, !tbaa !9
  store i32 %4, ptr %13, align 4, !tbaa !9
  store ptr %5, ptr %14, align 8, !tbaa !52
  store ptr %6, ptr %15, align 8, !tbaa !54
  call void @llvm.lifetime.start.p0(i64 8, ptr %16) #11
  %24 = load ptr, ptr %10, align 8, !tbaa !52
  %25 = getelementptr inbounds ptr, ptr %24, i64 0
  %26 = load ptr, ptr %25, align 8, !tbaa !4
  store ptr %26, ptr %16, align 8, !tbaa !4
  call void @llvm.lifetime.start.p0(i64 8, ptr %17) #11
  %27 = load ptr, ptr %14, align 8, !tbaa !52
  %28 = getelementptr inbounds ptr, ptr %27, i64 0
  %29 = load ptr, ptr %28, align 8, !tbaa !4
  %30 = load i32, ptr %12, align 4, !tbaa !9
  %31 = load ptr, ptr %15, align 8, !tbaa !54
  %32 = getelementptr inbounds i32, ptr %31, i64 0
  %33 = load i32, ptr %32, align 4, !tbaa !9
  %34 = mul nsw i32 %30, %33
  %35 = sext i32 %34 to i64
  %36 = getelementptr inbounds i8, ptr %29, i64 %35
  store ptr %36, ptr %17, align 8, !tbaa !4
  call void @llvm.lifetime.start.p0(i64 8, ptr %18) #11
  %37 = load ptr, ptr %14, align 8, !tbaa !52
  %38 = getelementptr inbounds ptr, ptr %37, i64 1
  %39 = load ptr, ptr %38, align 8, !tbaa !4
  %40 = load i32, ptr %12, align 4, !tbaa !9
  %41 = load ptr, ptr %15, align 8, !tbaa !54
  %42 = getelementptr inbounds i32, ptr %41, i64 1
  %43 = load i32, ptr %42, align 4, !tbaa !9
  %44 = mul nsw i32 %40, %43
  %45 = sdiv i32 %44, 2
  %46 = sext i32 %45 to i64
  %47 = getelementptr inbounds i8, ptr %39, i64 %46
  store ptr %47, ptr %18, align 8, !tbaa !4
  call void @llvm.lifetime.start.p0(i64 8, ptr %19) #11
  %48 = load ptr, ptr %14, align 8, !tbaa !52
  %49 = getelementptr inbounds ptr, ptr %48, i64 2
  %50 = load ptr, ptr %49, align 8, !tbaa !4
  %51 = load i32, ptr %12, align 4, !tbaa !9
  %52 = load ptr, ptr %15, align 8, !tbaa !54
  %53 = getelementptr inbounds i32, ptr %52, i64 2
  %54 = load i32, ptr %53, align 4, !tbaa !9
  %55 = mul nsw i32 %51, %54
  %56 = sdiv i32 %55, 2
  %57 = sext i32 %56 to i64
  %58 = getelementptr inbounds i8, ptr %50, i64 %57
  store ptr %58, ptr %19, align 8, !tbaa !4
  call void @llvm.lifetime.start.p0(i64 4, ptr %20) #11
  call void @llvm.lifetime.start.p0(i64 8, ptr %21) #11
  call void @llvm.lifetime.start.p0(i64 8, ptr %22) #11
  %59 = load ptr, ptr %9, align 8, !tbaa !13
  %60 = getelementptr inbounds nuw %struct.SwsInternal, ptr %59, i32 0, i32 0
  %61 = getelementptr inbounds nuw %struct.SwsContext, ptr %60, i32 0, i32 12
  %62 = load i32, ptr %61, align 8, !tbaa !15
  switch i32 %62, label %75 [
    i32 139, label %63
    i32 143, label %64
    i32 144, label %65
    i32 140, label %66
    i32 145, label %67
    i32 146, label %68
    i32 141, label %69
    i32 147, label %70
    i32 148, label %71
    i32 142, label %72
    i32 149, label %73
    i32 150, label %74
  ]

63:                                               ; preds = %7
  store ptr @bayer_bggr8_to_yv12_copy, ptr %21, align 8, !tbaa !56
  store ptr @bayer_bggr8_to_yv12_interpolate, ptr %22, align 8, !tbaa !56
  br label %76

64:                                               ; preds = %7
  store ptr @bayer_bggr16le_to_yv12_copy, ptr %21, align 8, !tbaa !56
  store ptr @bayer_bggr16le_to_yv12_interpolate, ptr %22, align 8, !tbaa !56
  br label %76

65:                                               ; preds = %7
  store ptr @bayer_bggr16be_to_yv12_copy, ptr %21, align 8, !tbaa !56
  store ptr @bayer_bggr16be_to_yv12_interpolate, ptr %22, align 8, !tbaa !56
  br label %76

66:                                               ; preds = %7
  store ptr @bayer_rggb8_to_yv12_copy, ptr %21, align 8, !tbaa !56
  store ptr @bayer_rggb8_to_yv12_interpolate, ptr %22, align 8, !tbaa !56
  br label %76

67:                                               ; preds = %7
  store ptr @bayer_rggb16le_to_yv12_copy, ptr %21, align 8, !tbaa !56
  store ptr @bayer_rggb16le_to_yv12_interpolate, ptr %22, align 8, !tbaa !56
  br label %76

68:                                               ; preds = %7
  store ptr @bayer_rggb16be_to_yv12_copy, ptr %21, align 8, !tbaa !56
  store ptr @bayer_rggb16be_to_yv12_interpolate, ptr %22, align 8, !tbaa !56
  br label %76

69:                                               ; preds = %7
  store ptr @bayer_gbrg8_to_yv12_copy, ptr %21, align 8, !tbaa !56
  store ptr @bayer_gbrg8_to_yv12_interpolate, ptr %22, align 8, !tbaa !56
  br label %76

70:                                               ; preds = %7
  store ptr @bayer_gbrg16le_to_yv12_copy, ptr %21, align 8, !tbaa !56
  store ptr @bayer_gbrg16le_to_yv12_interpolate, ptr %22, align 8, !tbaa !56
  br label %76

71:                                               ; preds = %7
  store ptr @bayer_gbrg16be_to_yv12_copy, ptr %21, align 8, !tbaa !56
  store ptr @bayer_gbrg16be_to_yv12_interpolate, ptr %22, align 8, !tbaa !56
  br label %76

72:                                               ; preds = %7
  store ptr @bayer_grbg8_to_yv12_copy, ptr %21, align 8, !tbaa !56
  store ptr @bayer_grbg8_to_yv12_interpolate, ptr %22, align 8, !tbaa !56
  br label %76

73:                                               ; preds = %7
  store ptr @bayer_grbg16le_to_yv12_copy, ptr %21, align 8, !tbaa !56
  store ptr @bayer_grbg16le_to_yv12_interpolate, ptr %22, align 8, !tbaa !56
  br label %76

74:                                               ; preds = %7
  store ptr @bayer_grbg16be_to_yv12_copy, ptr %21, align 8, !tbaa !56
  store ptr @bayer_grbg16be_to_yv12_interpolate, ptr %22, align 8, !tbaa !56
  br label %76

75:                                               ; preds = %7
  store i32 0, ptr %8, align 4
  store i32 1, ptr %23, align 4
  br label %233

76:                                               ; preds = %74, %73, %72, %71, %70, %69, %68, %67, %66, %65, %64, %63
  br label %77

77:                                               ; preds = %76
  %78 = load i32, ptr %13, align 4, !tbaa !9
  %79 = icmp sgt i32 %78, 1
  br i1 %79, label %81, label %80

80:                                               ; preds = %77
  call void (ptr, i32, ptr, ...) @av_log(ptr noundef null, i32 noundef 0, ptr noundef @.str.1, ptr noundef @.str.13, ptr noundef @.str.3, i32 noundef 1763)
  call void @abort() #12
  unreachable

81:                                               ; preds = %77
  br label %82

82:                                               ; preds = %81
  br label %83

83:                                               ; preds = %82
  %84 = load ptr, ptr %21, align 8, !tbaa !56
  %85 = load ptr, ptr %16, align 8, !tbaa !4
  %86 = load ptr, ptr %11, align 8, !tbaa !54
  %87 = getelementptr inbounds i32, ptr %86, i64 0
  %88 = load i32, ptr %87, align 4, !tbaa !9
  %89 = load ptr, ptr %17, align 8, !tbaa !4
  %90 = load ptr, ptr %18, align 8, !tbaa !4
  %91 = load ptr, ptr %19, align 8, !tbaa !4
  %92 = load ptr, ptr %15, align 8, !tbaa !54
  %93 = getelementptr inbounds i32, ptr %92, i64 0
  %94 = load i32, ptr %93, align 4, !tbaa !9
  %95 = load ptr, ptr %9, align 8, !tbaa !13
  %96 = getelementptr inbounds nuw %struct.SwsInternal, ptr %95, i32 0, i32 0
  %97 = getelementptr inbounds nuw %struct.SwsContext, ptr %96, i32 0, i32 8
  %98 = load i32, ptr %97, align 8, !tbaa !55
  %99 = load ptr, ptr %9, align 8, !tbaa !13
  %100 = getelementptr inbounds nuw %struct.SwsInternal, ptr %99, i32 0, i32 76
  %101 = getelementptr inbounds [176 x i32], ptr %100, i64 0, i64 0
  call void %84(ptr noundef %85, i32 noundef %88, ptr noundef %89, ptr noundef %90, ptr noundef %91, i32 noundef %94, i32 noundef %98, ptr noundef %101)
  %102 = load ptr, ptr %11, align 8, !tbaa !54
  %103 = getelementptr inbounds i32, ptr %102, i64 0
  %104 = load i32, ptr %103, align 4, !tbaa !9
  %105 = mul nsw i32 2, %104
  %106 = load ptr, ptr %16, align 8, !tbaa !4
  %107 = sext i32 %105 to i64
  %108 = getelementptr inbounds i8, ptr %106, i64 %107
  store ptr %108, ptr %16, align 8, !tbaa !4
  %109 = load ptr, ptr %15, align 8, !tbaa !54
  %110 = getelementptr inbounds i32, ptr %109, i64 0
  %111 = load i32, ptr %110, align 4, !tbaa !9
  %112 = mul nsw i32 2, %111
  %113 = load ptr, ptr %17, align 8, !tbaa !4
  %114 = sext i32 %112 to i64
  %115 = getelementptr inbounds i8, ptr %113, i64 %114
  store ptr %115, ptr %17, align 8, !tbaa !4
  %116 = load ptr, ptr %15, align 8, !tbaa !54
  %117 = getelementptr inbounds i32, ptr %116, i64 1
  %118 = load i32, ptr %117, align 4, !tbaa !9
  %119 = load ptr, ptr %18, align 8, !tbaa !4
  %120 = sext i32 %118 to i64
  %121 = getelementptr inbounds i8, ptr %119, i64 %120
  store ptr %121, ptr %18, align 8, !tbaa !4
  %122 = load ptr, ptr %15, align 8, !tbaa !54
  %123 = getelementptr inbounds i32, ptr %122, i64 1
  %124 = load i32, ptr %123, align 4, !tbaa !9
  %125 = load ptr, ptr %19, align 8, !tbaa !4
  %126 = sext i32 %124 to i64
  %127 = getelementptr inbounds i8, ptr %125, i64 %126
  store ptr %127, ptr %19, align 8, !tbaa !4
  store i32 2, ptr %20, align 4, !tbaa !9
  br label %128

128:                                              ; preds = %178, %83
  %129 = load i32, ptr %20, align 4, !tbaa !9
  %130 = load i32, ptr %13, align 4, !tbaa !9
  %131 = sub nsw i32 %130, 2
  %132 = icmp slt i32 %129, %131
  br i1 %132, label %133, label %181

133:                                              ; preds = %128
  %134 = load ptr, ptr %22, align 8, !tbaa !56
  %135 = load ptr, ptr %16, align 8, !tbaa !4
  %136 = load ptr, ptr %11, align 8, !tbaa !54
  %137 = getelementptr inbounds i32, ptr %136, i64 0
  %138 = load i32, ptr %137, align 4, !tbaa !9
  %139 = load ptr, ptr %17, align 8, !tbaa !4
  %140 = load ptr, ptr %18, align 8, !tbaa !4
  %141 = load ptr, ptr %19, align 8, !tbaa !4
  %142 = load ptr, ptr %15, align 8, !tbaa !54
  %143 = getelementptr inbounds i32, ptr %142, i64 0
  %144 = load i32, ptr %143, align 4, !tbaa !9
  %145 = load ptr, ptr %9, align 8, !tbaa !13
  %146 = getelementptr inbounds nuw %struct.SwsInternal, ptr %145, i32 0, i32 0
  %147 = getelementptr inbounds nuw %struct.SwsContext, ptr %146, i32 0, i32 8
  %148 = load i32, ptr %147, align 8, !tbaa !55
  %149 = load ptr, ptr %9, align 8, !tbaa !13
  %150 = getelementptr inbounds nuw %struct.SwsInternal, ptr %149, i32 0, i32 76
  %151 = getelementptr inbounds [176 x i32], ptr %150, i64 0, i64 0
  call void %134(ptr noundef %135, i32 noundef %138, ptr noundef %139, ptr noundef %140, ptr noundef %141, i32 noundef %144, i32 noundef %148, ptr noundef %151)
  %152 = load ptr, ptr %11, align 8, !tbaa !54
  %153 = getelementptr inbounds i32, ptr %152, i64 0
  %154 = load i32, ptr %153, align 4, !tbaa !9
  %155 = mul nsw i32 2, %154
  %156 = load ptr, ptr %16, align 8, !tbaa !4
  %157 = sext i32 %155 to i64
  %158 = getelementptr inbounds i8, ptr %156, i64 %157
  store ptr %158, ptr %16, align 8, !tbaa !4
  %159 = load ptr, ptr %15, align 8, !tbaa !54
  %160 = getelementptr inbounds i32, ptr %159, i64 0
  %161 = load i32, ptr %160, align 4, !tbaa !9
  %162 = mul nsw i32 2, %161
  %163 = load ptr, ptr %17, align 8, !tbaa !4
  %164 = sext i32 %162 to i64
  %165 = getelementptr inbounds i8, ptr %163, i64 %164
  store ptr %165, ptr %17, align 8, !tbaa !4
  %166 = load ptr, ptr %15, align 8, !tbaa !54
  %167 = getelementptr inbounds i32, ptr %166, i64 1
  %168 = load i32, ptr %167, align 4, !tbaa !9
  %169 = load ptr, ptr %18, align 8, !tbaa !4
  %170 = sext i32 %168 to i64
  %171 = getelementptr inbounds i8, ptr %169, i64 %170
  store ptr %171, ptr %18, align 8, !tbaa !4
  %172 = load ptr, ptr %15, align 8, !tbaa !54
  %173 = getelementptr inbounds i32, ptr %172, i64 1
  %174 = load i32, ptr %173, align 4, !tbaa !9
  %175 = load ptr, ptr %19, align 8, !tbaa !4
  %176 = sext i32 %174 to i64
  %177 = getelementptr inbounds i8, ptr %175, i64 %176
  store ptr %177, ptr %19, align 8, !tbaa !4
  br label %178

178:                                              ; preds = %133
  %179 = load i32, ptr %20, align 4, !tbaa !9
  %180 = add nsw i32 %179, 2
  store i32 %180, ptr %20, align 4, !tbaa !9
  br label %128, !llvm.loop !81

181:                                              ; preds = %128
  %182 = load i32, ptr %20, align 4, !tbaa !9
  %183 = add nsw i32 %182, 1
  %184 = load i32, ptr %13, align 4, !tbaa !9
  %185 = icmp eq i32 %183, %184
  br i1 %185, label %186, label %207

186:                                              ; preds = %181
  %187 = load ptr, ptr %21, align 8, !tbaa !56
  %188 = load ptr, ptr %16, align 8, !tbaa !4
  %189 = load ptr, ptr %11, align 8, !tbaa !54
  %190 = getelementptr inbounds i32, ptr %189, i64 0
  %191 = load i32, ptr %190, align 4, !tbaa !9
  %192 = sub nsw i32 0, %191
  %193 = load ptr, ptr %17, align 8, !tbaa !4
  %194 = load ptr, ptr %18, align 8, !tbaa !4
  %195 = load ptr, ptr %19, align 8, !tbaa !4
  %196 = load ptr, ptr %15, align 8, !tbaa !54
  %197 = getelementptr inbounds i32, ptr %196, i64 0
  %198 = load i32, ptr %197, align 4, !tbaa !9
  %199 = sub nsw i32 0, %198
  %200 = load ptr, ptr %9, align 8, !tbaa !13
  %201 = getelementptr inbounds nuw %struct.SwsInternal, ptr %200, i32 0, i32 0
  %202 = getelementptr inbounds nuw %struct.SwsContext, ptr %201, i32 0, i32 8
  %203 = load i32, ptr %202, align 8, !tbaa !55
  %204 = load ptr, ptr %9, align 8, !tbaa !13
  %205 = getelementptr inbounds nuw %struct.SwsInternal, ptr %204, i32 0, i32 76
  %206 = getelementptr inbounds [176 x i32], ptr %205, i64 0, i64 0
  call void %187(ptr noundef %188, i32 noundef %192, ptr noundef %193, ptr noundef %194, ptr noundef %195, i32 noundef %199, i32 noundef %203, ptr noundef %206)
  br label %231

207:                                              ; preds = %181
  %208 = load i32, ptr %20, align 4, !tbaa !9
  %209 = load i32, ptr %13, align 4, !tbaa !9
  %210 = icmp slt i32 %208, %209
  br i1 %210, label %211, label %230

211:                                              ; preds = %207
  %212 = load ptr, ptr %21, align 8, !tbaa !56
  %213 = load ptr, ptr %16, align 8, !tbaa !4
  %214 = load ptr, ptr %11, align 8, !tbaa !54
  %215 = getelementptr inbounds i32, ptr %214, i64 0
  %216 = load i32, ptr %215, align 4, !tbaa !9
  %217 = load ptr, ptr %17, align 8, !tbaa !4
  %218 = load ptr, ptr %18, align 8, !tbaa !4
  %219 = load ptr, ptr %19, align 8, !tbaa !4
  %220 = load ptr, ptr %15, align 8, !tbaa !54
  %221 = getelementptr inbounds i32, ptr %220, i64 0
  %222 = load i32, ptr %221, align 4, !tbaa !9
  %223 = load ptr, ptr %9, align 8, !tbaa !13
  %224 = getelementptr inbounds nuw %struct.SwsInternal, ptr %223, i32 0, i32 0
  %225 = getelementptr inbounds nuw %struct.SwsContext, ptr %224, i32 0, i32 8
  %226 = load i32, ptr %225, align 8, !tbaa !55
  %227 = load ptr, ptr %9, align 8, !tbaa !13
  %228 = getelementptr inbounds nuw %struct.SwsInternal, ptr %227, i32 0, i32 76
  %229 = getelementptr inbounds [176 x i32], ptr %228, i64 0, i64 0
  call void %212(ptr noundef %213, i32 noundef %216, ptr noundef %217, ptr noundef %218, ptr noundef %219, i32 noundef %222, i32 noundef %226, ptr noundef %229)
  br label %230

230:                                              ; preds = %211, %207
  br label %231

231:                                              ; preds = %230, %186
  %232 = load i32, ptr %13, align 4, !tbaa !9
  store i32 %232, ptr %8, align 4
  store i32 1, ptr %23, align 4
  br label %233

233:                                              ; preds = %231, %75
  call void @llvm.lifetime.end.p0(i64 8, ptr %22) #11
  call void @llvm.lifetime.end.p0(i64 8, ptr %21) #11
  call void @llvm.lifetime.end.p0(i64 4, ptr %20) #11
  call void @llvm.lifetime.end.p0(i64 8, ptr %19) #11
  call void @llvm.lifetime.end.p0(i64 8, ptr %18) #11
  call void @llvm.lifetime.end.p0(i64 8, ptr %17) #11
  call void @llvm.lifetime.end.p0(i64 8, ptr %16) #11
  %234 = load i32, ptr %8, align 4
  ret i32 %234
}