; Function Attrs: nounwind uwtable
define internal range(i32 0, -2147483648) i32 @bayer_to_yv12_wrapper(ptr noundef %0, ptr noundef readonly captures(none) %1, ptr noundef readonly captures(none) %2, i32 noundef %3, i32 noundef %4, ptr noundef readonly captures(none) %5, ptr noundef readonly captures(none) %6) #3 {
  %8 = load ptr, ptr %1, align 8, !tbaa !49
  %9 = load ptr, ptr %5, align 8, !tbaa !49
  %10 = load i32, ptr %6, align 4, !tbaa !48
  %11 = mul nsw i32 %10, %3
  %12 = sext i32 %11 to i64
  %13 = getelementptr inbounds i8, ptr %9, i64 %12
  %14 = getelementptr inbounds nuw i8, ptr %5, i64 8
  %15 = load ptr, ptr %14, align 8, !tbaa !49
  %16 = getelementptr inbounds nuw i8, ptr %6, i64 4
  %17 = load i32, ptr %16, align 4, !tbaa !48
  %18 = mul nsw i32 %17, %3
  %19 = sdiv i32 %18, 2
  %20 = sext i32 %19 to i64
  %21 = getelementptr inbounds i8, ptr %15, i64 %20
  %22 = getelementptr inbounds nuw i8, ptr %5, i64 16
  %23 = load ptr, ptr %22, align 8, !tbaa !49
  %24 = getelementptr inbounds nuw i8, ptr %6, i64 8
  %25 = load i32, ptr %24, align 4, !tbaa !48
  %26 = mul nsw i32 %25, %3
  %27 = sdiv i32 %26, 2
  %28 = sext i32 %27 to i64
  %29 = getelementptr inbounds i8, ptr %23, i64 %28
  %30 = getelementptr inbounds nuw i8, ptr %0, i64 72
  %31 = load i32, ptr %30, align 8, !tbaa !6
  %switch.tableidx = add i32 %31, -139
  %32 = icmp ult i32 %switch.tableidx, 12
  br i1 %32, label %switch.lookup, label %85

switch.lookup:                                    ; preds = %7
  %33 = zext nneg i32 %switch.tableidx to i64
  %switch.gep = getelementptr inbounds nuw [12 x ptr], ptr @switch.table.bayer_to_yv12_wrapper, i64 0, i64 %33
  %switch.load = load ptr, ptr %switch.gep, align 8
  %34 = zext nneg i32 %switch.tableidx to i64
  %switch.gep105 = getelementptr inbounds nuw [12 x ptr], ptr @switch.table.bayer_to_yv12_wrapper.3, i64 0, i64 %34
  %switch.load106 = load ptr, ptr %switch.gep105, align 8
  %35 = icmp sgt i32 %4, 1
  br i1 %35, label %37, label %36

36:                                               ; preds = %switch.lookup
  tail call void (ptr, i32, ptr, ...) @av_log(ptr noundef null, i32 noundef 0, ptr noundef nonnull @.str.1, ptr noundef nonnull @.str.13, ptr noundef nonnull @.str.3, i32 noundef 1763) #13
  tail call void @abort() #14
  unreachable

37:                                               ; preds = %switch.lookup
  %38 = load i32, ptr %2, align 4, !tbaa !48
  %39 = getelementptr inbounds nuw i8, ptr %0, i64 56
  %40 = load i32, ptr %39, align 8, !tbaa !50
  %41 = getelementptr inbounds nuw i8, ptr %0, i64 39552
  tail call void %switch.load(ptr noundef %8, i32 noundef %38, ptr noundef %13, ptr noundef %21, ptr noundef %29, i32 noundef %10, i32 noundef %40, ptr noundef nonnull %41) #13
  %42 = load i32, ptr %2, align 4, !tbaa !48
  %43 = shl nsw i32 %42, 1
  %44 = sext i32 %43 to i64
  %45 = getelementptr inbounds i8, ptr %8, i64 %44
  %46 = load i32, ptr %6, align 4, !tbaa !48
  %47 = shl nsw i32 %46, 1
  %48 = sext i32 %47 to i64
  %49 = getelementptr inbounds i8, ptr %13, i64 %48
  %50 = load i32, ptr %16, align 4, !tbaa !48
  %51 = sext i32 %50 to i64
  %52 = getelementptr inbounds i8, ptr %21, i64 %51
  %53 = getelementptr inbounds i8, ptr %29, i64 %51
  %54 = add nsw i32 %4, -2
  %55 = icmp samesign ugt i32 %4, 4
  br i1 %55, label %.lr.ph, label %._crit_edge

.lr.ph:                                           ; preds = %37, %.lr.ph
  %56 = phi i32 [ %63, %.lr.ph ], [ %46, %37 ]
  %57 = phi i32 [ %59, %.lr.ph ], [ %42, %37 ]
  %.07384 = phi i32 [ %71, %.lr.ph ], [ 2, %37 ]
  %.07483 = phi ptr [ %70, %.lr.ph ], [ %53, %37 ]
  %.07582 = phi ptr [ %69, %.lr.ph ], [ %52, %37 ]
  %.07681 = phi ptr [ %66, %.lr.ph ], [ %49, %37 ]
  %.07780 = phi ptr [ %62, %.lr.ph ], [ %45, %37 ]
  %58 = load i32, ptr %39, align 8, !tbaa !50
  tail call void %switch.load106(ptr noundef %.07780, i32 noundef %57, ptr noundef %.07681, ptr noundef %.07582, ptr noundef %.07483, i32 noundef %56, i32 noundef %58, ptr noundef nonnull %41) #13
  %59 = load i32, ptr %2, align 4, !tbaa !48
  %60 = shl nsw i32 %59, 1
  %61 = sext i32 %60 to i64
  %62 = getelementptr inbounds i8, ptr %.07780, i64 %61
  %63 = load i32, ptr %6, align 4, !tbaa !48
  %64 = shl nsw i32 %63, 1
  %65 = sext i32 %64 to i64
  %66 = getelementptr inbounds i8, ptr %.07681, i64 %65
  %67 = load i32, ptr %16, align 4, !tbaa !48
  %68 = sext i32 %67 to i64
  %69 = getelementptr inbounds i8, ptr %.07582, i64 %68
  %70 = getelementptr inbounds i8, ptr %.07483, i64 %68
  %71 = add nuw nsw i32 %.07384, 2
  %72 = icmp slt i32 %71, %54
  br i1 %72, label %.lr.ph, label %._crit_edge, !llvm.loop !84

._crit_edge:                                      ; preds = %.lr.ph, %37
  %73 = phi i32 [ %46, %37 ], [ %63, %.lr.ph ]
  %74 = phi i32 [ %42, %37 ], [ %59, %.lr.ph ]
  %.077.lcssa = phi ptr [ %45, %37 ], [ %62, %.lr.ph ]
  %.076.lcssa = phi ptr [ %49, %37 ], [ %66, %.lr.ph ]
  %.075.lcssa = phi ptr [ %52, %37 ], [ %69, %.lr.ph ]
  %.074.lcssa = phi ptr [ %53, %37 ], [ %70, %.lr.ph ]
  %.073.lcssa = phi i32 [ 2, %37 ], [ %71, %.lr.ph ]
  %75 = or disjoint i32 %.073.lcssa, 1
  %76 = icmp eq i32 %75, %4
  br i1 %76, label %77, label %81

77:                                               ; preds = %._crit_edge
  %78 = sub nsw i32 0, %74
  %79 = sub nsw i32 0, %73
  %80 = load i32, ptr %39, align 8, !tbaa !50
  tail call void %switch.load(ptr noundef %.077.lcssa, i32 noundef %78, ptr noundef %.076.lcssa, ptr noundef %.075.lcssa, ptr noundef %.074.lcssa, i32 noundef %79, i32 noundef %80, ptr noundef nonnull %41) #13
  br label %85

81:                                               ; preds = %._crit_edge
  %82 = icmp samesign ult i32 %.073.lcssa, %4
  br i1 %82, label %83, label %85

83:                                               ; preds = %81
  %84 = load i32, ptr %39, align 8, !tbaa !50
  tail call void %switch.load(ptr noundef %.077.lcssa, i32 noundef %74, ptr noundef %.076.lcssa, ptr noundef %.075.lcssa, ptr noundef %.074.lcssa, i32 noundef %73, i32 noundef %84, ptr noundef nonnull %41) #13
  br label %85

85:                                               ; preds = %7, %77, %83, %81
  %.078 = phi i32 [ 0, %7 ], [ %4, %81 ], [ %4, %83 ], [ %4, %77 ]
  ret i32 %.078
}